target datalayout = "e-m:e-p270:32:32-p271:32:32-p272:64:64-i64:64-i128:128-f80:128-n8:16:32:64-S128"
target triple = "x86_64-pc-linux-gnu"

; Function Attrs: inlinehint mustprogress uwtable
define linkonce_odr noundef nonnull align 8 dereferenceable(64) ptr @_ZN6icu_7713UnicodeString6appendEDs(ptr noundef nonnull align 8 dereferenceable(64) %0, i16 noundef zeroext %1) #3 comdat align 2 {
  %3 = alloca ptr, align 8
  %4 = alloca i16, align 2
  store ptr %0, ptr %3, align 8, !tbaa !23
  store i16 %1, ptr %4, align 2, !tbaa !27
  %5 = load ptr, ptr %3, align 8
  %6 = call noundef nonnull align 8 dereferenceable(64) ptr @_ZN6icu_7713UnicodeString8doAppendEPKDsii(ptr noundef nonnull align 8 dereferenceable(64) %5, ptr noundef %4, i32 noundef 0, i32 noundef 1)
  ret ptr %6
}

; Function Attrs: mustprogress uwtable
define noundef nonnull align 8 dereferenceable(64) ptr @_ZN6icu_7711ICU_Utility12appendNumberERNS_13UnicodeStringEiii(ptr noundef nonnull align 8 dereferenceable(64) %0, i32 noundef %1, i32 noundef %2, i32 noundef %3) #1 align 2 {
  %5 = alloca ptr, align 8
  %6 = alloca ptr, align 8
  %7 = alloca i32, align 4
  %8 = alloca i32, align 4
  %9 = alloca i32, align 4
  %10 = alloca i32, align 4
  %11 = alloca i32, align 4
  %12 = alloca i32, align 4
  store ptr %0, ptr %6, align 8, !tbaa !23
  store i32 %1, ptr %7, align 4, !tbaa !14
  store i32 %2, ptr %8, align 4, !tbaa !14
  store i32 %3, ptr %9, align 4, !tbaa !14
  %13 = load i32, ptr %8, align 4, !tbaa !14
  %14 = icmp slt i32 %13, 2
  br i1 %14, label %18, label %15

15:                                               ; preds = %4
  %16 = load i32, ptr %8, align 4, !tbaa !14
  %17 = icmp sgt i32 %16, 36
  br i1 %17, label %18, label %21

18:                                               ; preds = %15, %4
  %19 = load ptr, ptr %6, align 8, !tbaa !23
  %20 = call noundef nonnull align 8 dereferenceable(64) ptr @_ZN6icu_7713UnicodeString6appendEDs(ptr noundef nonnull align 8 dereferenceable(64) %19, i16 noundef zeroext 63)
  store ptr %20, ptr %5, align 8
  br label %77

21:                                               ; preds = %15
  %22 = load i32, ptr %7, align 4, !tbaa !14
  %23 = icmp slt i32 %22, 0
  br i1 %23, label %24, label %29

24:                                               ; preds = %21
  %25 = load i32, ptr %7, align 4, !tbaa !14
  %26 = sub nsw i32 0, %25
  store i32 %26, ptr %7, align 4, !tbaa !14
  %27 = load ptr, ptr %6, align 8, !tbaa !23
  %28 = call noundef nonnull align 8 dereferenceable(64) ptr @_ZN6icu_7713UnicodeString6appendEDs(ptr noundef nonnull align 8 dereferenceable(64) %27, i16 noundef zeroext 45)
  br label %29

29:                                               ; preds = %24, %21
  call void @llvm.lifetime.start.p0(i64 4, ptr %10) #10
  %30 = load i32, ptr %7, align 4, !tbaa !14
  store i32 %30, ptr %10, align 4, !tbaa !14
  call void @llvm.lifetime.start.p0(i64 4, ptr %11) #10
  store i32 1, ptr %11, align 4, !tbaa !14
  br label %31

31:                                               ; preds = %35, %29
  %32 = load i32, ptr %10, align 4, !tbaa !14
  %33 = load i32, ptr %8, align 4, !tbaa !14
  %34 = icmp sge i32 %32, %33
  br i1 %34, label %35, label %44

35:                                               ; preds = %31
  %36 = load i32, ptr %8, align 4, !tbaa !14
  %37 = load i32, ptr %10, align 4, !tbaa !14
  %38 = sdiv i32 %37, %36
  store i32 %38, ptr %10, align 4, !tbaa !14
  %39 = load i32, ptr %8, align 4, !tbaa !14
  %40 = load i32, ptr %11, align 4, !tbaa !14
  %41 = mul nsw i32 %40, %39
  store i32 %41, ptr %11, align 4, !tbaa !14
  %42 = load i32, ptr %9, align 4, !tbaa !14
  %43 = add nsw i32 %42, -1
  store i32 %43, ptr %9, align 4, !tbaa !14
  br label %31, !llvm.loop !25

44:                                               ; preds = %31
  br label %45

45:                                               ; preds = %49, %44
  %46 = load i32, ptr %9, align 4, !tbaa !14
  %47 = add nsw i32 %46, -1
  store i32 %47, ptr %9, align 4, !tbaa !14
  %48 = icmp sgt i32 %47, 0
  br i1 %48, label %49, label %53

49:                                               ; preds = %45
  %50 = load ptr, ptr %6, align 8, !tbaa !23
  %51 = load i16, ptr @_ZL6DIGITS, align 16, !tbaa !27
  %52 = call noundef nonnull align 8 dereferenceable(64) ptr @_ZN6icu_7713UnicodeString6appendEDs(ptr noundef nonnull align 8 dereferenceable(64) %50, i16 noundef zeroext %51)
  br label %45, !llvm.loop !29

53:                                               ; preds = %45
  br label %54

54:                                               ; preds = %57, %53
  %55 = load i32, ptr %11, align 4, !tbaa !14
  %56 = icmp sgt i32 %55, 0
  br i1 %56, label %57, label %75

57:                                               ; preds = %54
  call void @llvm.lifetime.start.p0(i64 4, ptr %12) #10
  %58 = load i32, ptr %7, align 4, !tbaa !14
  %59 = load i32, ptr %11, align 4, !tbaa !14
  %60 = sdiv i32 %58, %59
  store i32 %60, ptr %12, align 4, !tbaa !14
  %61 = load ptr, ptr %6, align 8, !tbaa !23
  %62 = load i32, ptr %12, align 4, !tbaa !14
  %63 = sext i32 %62 to i64
  %64 = getelementptr inbounds [36 x i16], ptr @_ZL6DIGITS, i64 0, i64 %63
  %65 = load i16, ptr %64, align 2, !tbaa !27
  %66 = call noundef nonnull align 8 dereferenceable(64) ptr @_ZN6icu_7713UnicodeString6appendEDs(ptr noundef nonnull align 8 dereferenceable(64) %61, i16 noundef zeroext %65)
  %67 = load i32, ptr %12, align 4, !tbaa !14
  %68 = load i32, ptr %11, align 4, !tbaa !14
  %69 = mul nsw i32 %67, %68
  %70 = load i32, ptr %7, align 4, !tbaa !14
  %71 = sub nsw i32 %70, %69
  store i32 %71, ptr %7, align 4, !tbaa !14
  %72 = load i32, ptr %8, align 4, !tbaa !14
  %73 = load i32, ptr %11, align 4, !tbaa !14
  %74 = sdiv i32 %73, %72
  store i32 %74, ptr %11, align 4, !tbaa !14
  call void @llvm.lifetime.end.p0(i64 4, ptr %12) #10
  br label %54, !llvm.loop !30

75:                                               ; preds = %54
  %76 = load ptr, ptr %6, align 8, !tbaa !23
  store ptr %76, ptr %5, align 8
  call void @llvm.lifetime.end.p0(i64 4, ptr %11) #10
  call void @llvm.lifetime.end.p0(i64 4, ptr %10) #10
  br label %77

77:                                               ; preds = %75, %18
  %78 = load ptr, ptr %5, align 8
  ret ptr %78
}