; Function Attrs: mustprogress uwtable
define noundef nonnull align 8 dereferenceable(64) ptr @_ZN6icu_7711ICU_Utility12appendNumberERNS_13UnicodeStringEiii(ptr noundef nonnull align 8 dereferenceable(64) %0, i32 noundef %1, i32 noundef %2, i32 noundef %3) local_unnamed_addr #1 align 2 {
  %5 = alloca i16, align 2
  %6 = alloca i16, align 2
  %7 = alloca i16, align 2
  %8 = alloca i16, align 2
  %9 = add i32 %2, -37
  %or.cond = icmp ult i32 %9, -35
  br i1 %or.cond, label %10, label %12

10:                                               ; preds = %4
  call void @llvm.lifetime.start.p0(i64 2, ptr nonnull %8)
  store i16 63, ptr %8, align 2, !tbaa !15
  %11 = call noundef nonnull align 8 dereferenceable(64) ptr @_ZN6icu_7713UnicodeString8doAppendEPKDsii(ptr noundef nonnull align 8 dereferenceable(64) %0, ptr noundef nonnull %8, i32 noundef 0, i32 noundef 1)
  call void @llvm.lifetime.end.p0(i64 2, ptr nonnull %8)
  br label %.loopexit

12:                                               ; preds = %4
  %13 = icmp slt i32 %1, 0
  br i1 %13, label %14, label %17

14:                                               ; preds = %12
  %15 = sub nsw i32 0, %1
  call void @llvm.lifetime.start.p0(i64 2, ptr nonnull %7)
  store i16 45, ptr %7, align 2, !tbaa !15
  %16 = call noundef nonnull align 8 dereferenceable(64) ptr @_ZN6icu_7713UnicodeString8doAppendEPKDsii(ptr noundef nonnull align 8 dereferenceable(64) %0, ptr noundef nonnull %7, i32 noundef 0, i32 noundef 1)
  call void @llvm.lifetime.end.p0(i64 2, ptr nonnull %7)
  br label %17

17:                                               ; preds = %14, %12
  %.032 = phi i32 [ %15, %14 ], [ %1, %12 ]
  %.not39 = icmp samesign ult i32 %.032, %2
  br i1 %.not39, label %.preheader38, label %.lr.ph

.preheader38:                                     ; preds = %.lr.ph, %17
  %.030.lcssa = phi i32 [ %3, %17 ], [ %21, %.lr.ph ]
  %.028.lcssa = phi i32 [ 1, %17 ], [ %20, %.lr.ph ]
  %18 = icmp sgt i32 %.030.lcssa, 1
  br i1 %18, label %.lr.ph45, label %.preheader

.lr.ph:                                           ; preds = %17, %.lr.ph
  %.02842 = phi i32 [ %20, %.lr.ph ], [ 1, %17 ]
  %.02941 = phi i32 [ %19, %.lr.ph ], [ %.032, %17 ]
  %.03040 = phi i32 [ %21, %.lr.ph ], [ %3, %17 ]
  %19 = udiv i32 %.02941, %2
  %20 = mul nuw nsw i32 %.02842, %2
  %21 = add nsw i32 %.03040, -1
  %.not = icmp samesign ult i32 %19, %2
  br i1 %.not, label %.preheader38, label %.lr.ph, !llvm.loop !17

.preheader:                                       ; preds = %.lr.ph45, %.preheader38
  %.not52 = icmp eq i32 %.028.lcssa, 0
  br i1 %.not52, label %.loopexit, label %.lr.ph48

.lr.ph45:                                         ; preds = %.preheader38, %.lr.ph45
  %.13144 = phi i32 [ %22, %.lr.ph45 ], [ %.030.lcssa, %.preheader38 ]
  %22 = add nsw i32 %.13144, -1
  call void @llvm.lifetime.start.p0(i64 2, ptr nonnull %6)
  store i16 48, ptr %6, align 2, !tbaa !15
  %23 = call noundef nonnull align 8 dereferenceable(64) ptr @_ZN6icu_7713UnicodeString8doAppendEPKDsii(ptr noundef nonnull align 8 dereferenceable(64) %0, ptr noundef nonnull %6, i32 noundef 0, i32 noundef 1)
  call void @llvm.lifetime.end.p0(i64 2, ptr nonnull %6)
  %24 = icmp samesign ugt i32 %.13144, 2
  br i1 %24, label %.lr.ph45, label %.preheader, !llvm.loop !19

.lr.ph48:                                         ; preds = %.preheader, %.lr.ph48
  %.147 = phi i32 [ %31, %.lr.ph48 ], [ %.028.lcssa, %.preheader ]
  %.13346 = phi i32 [ %.recomposed, %.lr.ph48 ], [ %.032, %.preheader ]
  %25 = sdiv i32 %.13346, %.147
  %26 = sext i32 %25 to i64
  %27 = getelementptr inbounds [36 x i16], ptr @_ZL6DIGITS, i64 0, i64 %26
  %28 = load i16, ptr %27, align 2, !tbaa !15
  call void @llvm.lifetime.start.p0(i64 2, ptr nonnull %5)
  store i16 %28, ptr %5, align 2, !tbaa !15
  %29 = call noundef nonnull align 8 dereferenceable(64) ptr @_ZN6icu_7713UnicodeString8doAppendEPKDsii(ptr noundef nonnull align 8 dereferenceable(64) %0, ptr noundef nonnull %5, i32 noundef 0, i32 noundef 1)
  call void @llvm.lifetime.end.p0(i64 2, ptr nonnull %5)
  %30 = mul nsw i32 %25, %.147
  %.recomposed = srem i32 %.13346, %.147
  %31 = udiv i32 %.147, %2
  %.not49 = icmp ugt i32 %2, %.147
  br i1 %.not49, label %.loopexit, label %.lr.ph48, !llvm.loop !20

.loopexit:                                        ; preds = %.lr.ph48, %.preheader, %10
  %.0 = phi ptr [ %11, %10 ], [ %0, %.preheader ], [ %0, %.lr.ph48 ]
  ret ptr %.0
}